; Function Attrs: mustprogress uwtable
define signext range(i8 0, 2) i8 @ufile_getch_77(ptr noundef %0, ptr noundef writeonly captures(none) initializes((0, 2)) %1) local_unnamed_addr #0 {
  store i16 -1, ptr %1, align 2, !tbaa !38
  %3 = getelementptr inbounds nuw i8, ptr %0, i64 24
  %4 = load ptr, ptr %3, align 8, !tbaa !34
  %5 = getelementptr inbounds nuw i8, ptr %0, i64 32
  %6 = load ptr, ptr %5, align 8, !tbaa !33
  %7 = icmp ult ptr %4, %6
  br i1 %7, label %.sink.split, label %8

8:                                                ; preds = %2
  tail call void @_Z26ufile_fill_uchar_buffer_77P5UFILE(ptr noundef nonnull %0)
  %9 = load ptr, ptr %3, align 8, !tbaa !34
  %10 = load ptr, ptr %5, align 8, !tbaa !33
  %11 = icmp ult ptr %9, %10
  br i1 %11, label %.sink.split, label %14

.sink.split:                                      ; preds = %8, %2
  %.sink15 = phi ptr [ %4, %2 ], [ %9, %8 ]
  %12 = getelementptr inbounds nuw i8, ptr %.sink15, i64 2
  store ptr %12, ptr %3, align 8, !tbaa !34
  %13 = load i16, ptr %.sink15, align 2, !tbaa !38
  store i16 %13, ptr %1, align 2, !tbaa !38
  br label %14

14:                                               ; preds = %.sink.split, %8
  %.0 = phi i8 [ 0, %8 ], [ 1, %.sink.split ]
  ret i8 %.0
}